target datalayout = "e-m:e-p270:32:32-p271:32:32-p272:64:64-i64:64-i128:128-f80:128-n8:16:32:64-S128"
target triple = "x86_64-pc-linux-gnu"

%struct.mbedtls_cipher_context_t = type { ptr, i32, i32, ptr, ptr, [16 x i8], i64, [16 x i8], i64, ptr, ptr }
%struct.psa_aead_operation_s = type { i32, i32, i16, i64, i64, i8, %union.psa_driver_aead_context_t }
%union.psa_driver_aead_context_t = type { %struct.mbedtls_psa_aead_operation_t }
%struct.mbedtls_psa_aead_operation_t = type { i32, i16, i8, i8, %union.anon.1 }
%union.anon.1 = type { %struct.mbedtls_gcm_context }
%struct.mbedtls_gcm_context = type { %struct.mbedtls_cipher_context_t, [16 x i64], [16 x i64], i64, i64, [16 x i8], [16 x i8], [16 x i8], i32 }

; Function Attrs: nounwind uwtable
define hidden i32 @psa_driver_wrapper_aead_finish(ptr noundef %0, ptr noundef %1, i64 noundef %2, ptr noundef %3, ptr noundef %4, i64 noundef %5, ptr noundef %6) #0 {
  %8 = alloca i32, align 4
  %9 = alloca ptr, align 8
  %10 = alloca ptr, align 8
  %11 = alloca i64, align 8
  %12 = alloca ptr, align 8
  %13 = alloca ptr, align 8
  %14 = alloca i64, align 8
  %15 = alloca ptr, align 8
  store ptr %0, ptr %9, align 8
  store ptr %1, ptr %10, align 8
  store i64 %2, ptr %11, align 8
  store ptr %3, ptr %12, align 8
  store ptr %4, ptr %13, align 8
  store i64 %5, ptr %14, align 8
  store ptr %6, ptr %15, align 8
  %16 = load ptr, ptr %9, align 8
  %17 = getelementptr inbounds %struct.psa_aead_operation_s, ptr %16, i32 0, i32 0
  %18 = load i32, ptr %17, align 8
  switch i32 %18, label %29 [
    i32 1, label %19
  ]

19:                                               ; preds = %7
  %20 = load ptr, ptr %9, align 8
  %21 = getelementptr inbounds %struct.psa_aead_operation_s, ptr %20, i32 0, i32 6
  %22 = load ptr, ptr %10, align 8
  %23 = load i64, ptr %11, align 8
  %24 = load ptr, ptr %12, align 8
  %25 = load ptr, ptr %13, align 8
  %26 = load i64, ptr %14, align 8
  %27 = load ptr, ptr %15, align 8
  %28 = call i32 @mbedtls_psa_aead_finish(ptr noundef %21, ptr noundef %22, i64 noundef %23, ptr noundef %24, ptr noundef %25, i64 noundef %26, ptr noundef %27)
  store i32 %28, ptr %8, align 4
  br label %30

29:                                               ; preds = %7
  store i32 -135, ptr %8, align 4
  br label %30

30:                                               ; preds = %29, %19
  %31 = load i32, ptr %8, align 4
  ret i32 %31
}