; Function Attrs: nounwind uwtable
define hidden i32 @psa_driver_wrapper_aead_finish(ptr noundef %0, ptr noundef %1, i64 noundef %2, ptr noundef %3, ptr noundef %4, i64 noundef %5, ptr noundef %6) local_unnamed_addr #1 {
  %8 = load i32, ptr %0, align 8
  %cond = icmp eq i32 %8, 1
  br i1 %cond, label %9, label %12

9:                                                ; preds = %7
  %10 = getelementptr inbounds nuw i8, ptr %0, i64 40
  %11 = tail call i32 @mbedtls_psa_aead_finish(ptr noundef nonnull %10, ptr noundef %1, i64 noundef %2, ptr noundef %3, ptr noundef %4, i64 noundef %5, ptr noundef %6) #5
  br label %12

12:                                               ; preds = %7, %9
  %.0 = phi i32 [ %11, %9 ], [ -135, %7 ]
  ret i32 %.0
}